; Function Attrs: null_pointer_is_valid sspstrong uwtable
define hidden void @proto_register_banana() local_unnamed_addr #0 {
  %1 = tail call i32 @proto_register_protocol(ptr noundef nonnull @.str.32, ptr noundef nonnull @.str.33, ptr noundef nonnull @.str.34)
  store i32 %1, ptr @proto_banana, align 4
  tail call void @proto_register_field_array(i32 noundef %1, ptr noundef nonnull @proto_register_banana.hf, i32 noundef 8)
  tail call void @proto_register_subtree_array(ptr noundef nonnull @proto_register_banana.ett, i32 noundef 2)
  %2 = load i32, ptr @proto_banana, align 4
  %3 = tail call ptr @expert_register_protocol(i32 noundef %2)
  tail call void @expert_register_field_array(ptr noundef %3, ptr noundef nonnull @proto_register_banana.ei, i32 noundef 5)
  %4 = load i32, ptr @proto_banana, align 4
  %5 = tail call ptr @register_dissector(ptr noundef nonnull @.str.34, ptr noundef nonnull @dissect_banana, i32 noundef %4)
  store ptr %5, ptr @banana_handle, align 8
  ret void
}